target datalayout = "e-m:e-p270:32:32-p271:32:32-p272:64:64-i64:64-i128:128-f80:128-n8:16:32:64-S128"
target triple = "x86_64-pc-linux-gnu"

; Function Attrs: nounwind uwtable
define i32 @Wlc_ObjIsArithm(ptr noundef %0) #0 {
  %2 = alloca ptr, align 8
  store ptr %0, ptr %2, align 8, !tbaa !3
  %3 = load ptr, ptr %2, align 8, !tbaa !3
  %4 = load i16, ptr %3, align 8
  %5 = and i16 %4, 63
  %6 = zext i16 %5 to i32
  %7 = icmp eq i32 %6, 6
  br i1 %7, label %56, label %8

8:                                                ; preds = %1
  %9 = load ptr, ptr %2, align 8, !tbaa !3
  %10 = load i16, ptr %9, align 8
  %11 = and i16 %10, 63
  %12 = zext i16 %11 to i32
  %13 = icmp eq i32 %12, 7
  br i1 %13, label %56, label %14

14:                                               ; preds = %8
  %15 = load ptr, ptr %2, align 8, !tbaa !3
  %16 = load i16, ptr %15, align 8
  %17 = and i16 %16, 63
  %18 = zext i16 %17 to i32
  %19 = icmp eq i32 %18, 15
  br i1 %19, label %56, label %20

20:                                               ; preds = %14
  %21 = load ptr, ptr %2, align 8, !tbaa !3
  %22 = load i16, ptr %21, align 8
  %23 = and i16 %22, 63
  %24 = zext i16 %23 to i32
  %25 = icmp eq i32 %24, 24
  br i1 %25, label %56, label %26

26:                                               ; preds = %20
  %27 = load ptr, ptr %2, align 8, !tbaa !3
  %28 = load i16, ptr %27, align 8
  %29 = and i16 %28, 63
  %30 = zext i16 %29 to i32
  %31 = icmp eq i32 %30, 25
  br i1 %31, label %56, label %32

32:                                               ; preds = %26
  %33 = load ptr, ptr %2, align 8, !tbaa !3
  %34 = load i16, ptr %33, align 8
  %35 = and i16 %34, 63
  %36 = zext i16 %35 to i32
  %37 = icmp eq i32 %36, 43
  br i1 %37, label %56, label %38

38:                                               ; preds = %32
  %39 = load ptr, ptr %2, align 8, !tbaa !3
  %40 = load i16, ptr %39, align 8
  %41 = and i16 %40, 63
  %42 = zext i16 %41 to i32
  %43 = icmp eq i32 %42, 44
  br i1 %43, label %56, label %44

44:                                               ; preds = %38
  %45 = load ptr, ptr %2, align 8, !tbaa !3
  %46 = load i16, ptr %45, align 8
  %47 = and i16 %46, 63
  %48 = zext i16 %47 to i32
  %49 = icmp eq i32 %48, 45
  br i1 %49, label %56, label %50

50:                                               ; preds = %44
  %51 = load ptr, ptr %2, align 8, !tbaa !3
  %52 = load i16, ptr %51, align 8
  %53 = and i16 %52, 63
  %54 = zext i16 %53 to i32
  %55 = icmp eq i32 %54, 50
  br label %56

56:                                               ; preds = %50, %44, %38, %32, %26, %20, %14, %8, %1
  %57 = phi i1 [ true, %44 ], [ true, %38 ], [ true, %32 ], [ true, %26 ], [ true, %20 ], [ true, %14 ], [ true, %8 ], [ true, %1 ], [ %55, %50 ]
  %58 = zext i1 %57 to i32
  ret i32 %58
}