; Function Attrs: mustprogress nofree norecurse nosync nounwind willreturn memory(argmem: read) uwtable
define range(i32 0, 2) i32 @Wlc_ObjIsArithm(ptr noundef readonly captures(none) %0) local_unnamed_addr #0 {
  %2 = load i16, ptr %0, align 8
  %3 = and i16 %2, 63
  switch i16 %3, label %4 [
    i16 6, label %7
    i16 7, label %7
    i16 15, label %7
    i16 24, label %7
    i16 25, label %7
    i16 43, label %7
    i16 44, label %7
    i16 45, label %7
  ]

4:                                                ; preds = %1
  %5 = icmp eq i16 %3, 50
  %6 = zext i1 %5 to i32
  br label %7

7:                                                ; preds = %1, %1, %1, %1, %1, %1, %1, %1, %4
  %8 = phi i32 [ 1, %1 ], [ %6, %4 ], [ 1, %1 ], [ 1, %1 ], [ 1, %1 ], [ 1, %1 ], [ 1, %1 ], [ 1, %1 ], [ 1, %1 ]
  ret i32 %8
}